; Function Attrs: mustprogress uwtable
define internal noundef i64 @_ZNK7rocksdb12_GLOBAL__N_129LegacyRandomAccessFileWrapper11GetUniqueIdEPcm(ptr noundef nonnull readonly align 8 captures(none) dereferenceable(16) %0, ptr noundef %1, i64 noundef %2) unnamed_addr #4 align 2 {
  %4 = getelementptr inbounds nuw i8, ptr %0, i64 8
  %5 = load ptr, ptr %4, align 8, !tbaa !459
  %6 = load ptr, ptr %5, align 8, !tbaa !18
  %7 = getelementptr inbounds nuw i8, ptr %6, i64 40
  %8 = load ptr, ptr %7, align 8
  %9 = tail call noundef i64 %8(ptr noundef nonnull align 8 dereferenceable(8) %5, ptr noundef %1, i64 noundef %2)
  ret i64 %9
}